target datalayout = "e-m:e-p270:32:32-p271:32:32-p272:64:64-i64:64-i128:128-f80:128-n8:16:32:64-S128"
target triple = "x86_64-pc-linux-gnu"

%struct.evp_pkey_st = type { i32, i32, ptr, ptr, ptr, %union.legacy_pkey_st, %union.legacy_pkey_st, %struct.CRYPTO_REF_COUNT, ptr, ptr, i32, i8, %struct.crypto_ex_data_st, ptr, ptr, i64, ptr, i64, %struct.anon }
%union.legacy_pkey_st = type { ptr }
%struct.CRYPTO_REF_COUNT = type { i32 }
%struct.crypto_ex_data_st = type { ptr, ptr }
%struct.anon = type { i32, i32, i32 }
%struct.evp_keymgmt_st = type { i32, i32, i32, ptr, ptr, ptr, %struct.CRYPTO_REF_COUNT, ptr, ptr, ptr, ptr, ptr, ptr, ptr, ptr, ptr, ptr, ptr, ptr, ptr, ptr, ptr, ptr, ptr, ptr, ptr, ptr, ptr, ptr, ptr, ptr, ptr, ptr }

; Function Attrs: nounwind uwtable
define internal i32 @evp_pkey_cmp_any(ptr noundef %0, ptr noundef %1, i32 noundef %2) #0 {
  %4 = alloca i32, align 4
  %5 = alloca ptr, align 8
  %6 = alloca ptr, align 8
  %7 = alloca i32, align 4
  %8 = alloca ptr, align 8
  %9 = alloca ptr, align 8
  %10 = alloca ptr, align 8
  %11 = alloca ptr, align 8
  %12 = alloca ptr, align 8
  %13 = alloca i32, align 4
  store ptr %0, ptr %5, align 8, !tbaa !3
  store ptr %1, ptr %6, align 8, !tbaa !3
  store i32 %2, ptr %7, align 4, !tbaa !8
  call void @llvm.lifetime.start.p0(i64 8, ptr %8) #8
  store ptr null, ptr %8, align 8, !tbaa !34
  call void @llvm.lifetime.start.p0(i64 8, ptr %9) #8
  store ptr null, ptr %9, align 8, !tbaa !34
  call void @llvm.lifetime.start.p0(i64 8, ptr %10) #8
  store ptr null, ptr %10, align 8, !tbaa !31
  call void @llvm.lifetime.start.p0(i64 8, ptr %11) #8
  store ptr null, ptr %11, align 8, !tbaa !31
  call void @llvm.lifetime.start.p0(i64 8, ptr %12) #8
  store ptr null, ptr %12, align 8, !tbaa !31
  %14 = load ptr, ptr %5, align 8, !tbaa !3
  %15 = getelementptr inbounds nuw %struct.evp_pkey_st, ptr %14, i32 0, i32 13
  %16 = load ptr, ptr %15, align 8, !tbaa !32
  %17 = icmp ne ptr %16, null
  br i1 %17, label %23, label %18

18:                                               ; preds = %3
  %19 = load ptr, ptr %6, align 8, !tbaa !3
  %20 = getelementptr inbounds nuw %struct.evp_pkey_st, ptr %19, i32 0, i32 13
  %21 = load ptr, ptr %20, align 8, !tbaa !32
  %22 = icmp ne ptr %21, null
  br label %23

23:                                               ; preds = %18, %3
  %24 = phi i1 [ true, %3 ], [ %22, %18 ]
  %25 = zext i1 %24 to i32
  %26 = icmp ne i32 %25, 0
  %27 = xor i1 %26, true
  %28 = xor i1 %27, true
  %29 = zext i1 %28 to i32
  %30 = sext i32 %29 to i64
  %31 = call i64 @llvm.expect.i64(i64 %30, i64 1)
  %32 = icmp ne i64 %31, 0
  br i1 %32, label %34, label %33

33:                                               ; preds = %23
  store i32 -2, ptr %4, align 4
  store i32 1, ptr %13, align 4
  br label %155

34:                                               ; preds = %23
  %35 = load ptr, ptr %5, align 8, !tbaa !3
  %36 = getelementptr inbounds nuw %struct.evp_pkey_st, ptr %35, i32 0, i32 13
  %37 = load ptr, ptr %36, align 8, !tbaa !32
  %38 = icmp ne ptr %37, null
  br i1 %38, label %39, label %49

39:                                               ; preds = %34
  %40 = load ptr, ptr %6, align 8, !tbaa !3
  %41 = getelementptr inbounds nuw %struct.evp_pkey_st, ptr %40, i32 0, i32 13
  %42 = load ptr, ptr %41, align 8, !tbaa !32
  %43 = icmp ne ptr %42, null
  br i1 %43, label %44, label %49

44:                                               ; preds = %39
  %45 = load ptr, ptr %5, align 8, !tbaa !3
  %46 = load ptr, ptr %6, align 8, !tbaa !3
  %47 = load i32, ptr %7, align 4, !tbaa !8
  %48 = call i32 @evp_keymgmt_util_match(ptr noundef %45, ptr noundef %46, i32 noundef %47)
  store i32 %48, ptr %4, align 4
  store i32 1, ptr %13, align 4
  br label %155

49:                                               ; preds = %39, %34
  %50 = load ptr, ptr %5, align 8, !tbaa !3
  %51 = getelementptr inbounds nuw %struct.evp_pkey_st, ptr %50, i32 0, i32 0
  %52 = load i32, ptr %51, align 8, !tbaa !29
  %53 = icmp ne i32 %52, 0
  br i1 %53, label %54, label %70

54:                                               ; preds = %49
  %55 = load ptr, ptr %5, align 8, !tbaa !3
  %56 = getelementptr inbounds nuw %struct.evp_pkey_st, ptr %55, i32 0, i32 13
  %57 = load ptr, ptr %56, align 8, !tbaa !32
  %58 = icmp eq ptr %57, null
  br i1 %58, label %59, label %70

59:                                               ; preds = %54
  %60 = load ptr, ptr %6, align 8, !tbaa !3
  %61 = getelementptr inbounds nuw %struct.evp_pkey_st, ptr %60, i32 0, i32 13
  %62 = load ptr, ptr %61, align 8, !tbaa !32
  %63 = load ptr, ptr %5, align 8, !tbaa !3
  %64 = getelementptr inbounds nuw %struct.evp_pkey_st, ptr %63, i32 0, i32 0
  %65 = load i32, ptr %64, align 8, !tbaa !29
  %66 = call ptr @OBJ_nid2sn(i32 noundef %65)
  %67 = call i32 @EVP_KEYMGMT_is_a(ptr noundef %62, ptr noundef %66)
  %68 = icmp ne i32 %67, 0
  br i1 %68, label %70, label %69

69:                                               ; preds = %59
  store i32 -1, ptr %4, align 4
  store i32 1, ptr %13, align 4
  br label %155

70:                                               ; preds = %59, %54, %49
  %71 = load ptr, ptr %6, align 8, !tbaa !3
  %72 = getelementptr inbounds nuw %struct.evp_pkey_st, ptr %71, i32 0, i32 0
  %73 = load i32, ptr %72, align 8, !tbaa !29
  %74 = icmp ne i32 %73, 0
  br i1 %74, label %75, label %91

75:                                               ; preds = %70
  %76 = load ptr, ptr %6, align 8, !tbaa !3
  %77 = getelementptr inbounds nuw %struct.evp_pkey_st, ptr %76, i32 0, i32 13
  %78 = load ptr, ptr %77, align 8, !tbaa !32
  %79 = icmp eq ptr %78, null
  br i1 %79, label %80, label %91

80:                                               ; preds = %75
  %81 = load ptr, ptr %5, align 8, !tbaa !3
  %82 = getelementptr inbounds nuw %struct.evp_pkey_st, ptr %81, i32 0, i32 13
  %83 = load ptr, ptr %82, align 8, !tbaa !32
  %84 = load ptr, ptr %6, align 8, !tbaa !3
  %85 = getelementptr inbounds nuw %struct.evp_pkey_st, ptr %84, i32 0, i32 0
  %86 = load i32, ptr %85, align 8, !tbaa !29
  %87 = call ptr @OBJ_nid2sn(i32 noundef %86)
  %88 = call i32 @EVP_KEYMGMT_is_a(ptr noundef %83, ptr noundef %87)
  %89 = icmp ne i32 %88, 0
  br i1 %89, label %91, label %90

90:                                               ; preds = %80
  store i32 -1, ptr %4, align 4
  store i32 1, ptr %13, align 4
  br label %155

91:                                               ; preds = %80, %75, %70
  %92 = load ptr, ptr %5, align 8, !tbaa !3
  %93 = getelementptr inbounds nuw %struct.evp_pkey_st, ptr %92, i32 0, i32 13
  %94 = load ptr, ptr %93, align 8, !tbaa !32
  store ptr %94, ptr %8, align 8, !tbaa !34
  %95 = load ptr, ptr %5, align 8, !tbaa !3
  %96 = getelementptr inbounds nuw %struct.evp_pkey_st, ptr %95, i32 0, i32 14
  %97 = load ptr, ptr %96, align 8, !tbaa !33
  store ptr %97, ptr %10, align 8, !tbaa !31
  %98 = load ptr, ptr %6, align 8, !tbaa !3
  %99 = getelementptr inbounds nuw %struct.evp_pkey_st, ptr %98, i32 0, i32 13
  %100 = load ptr, ptr %99, align 8, !tbaa !32
  store ptr %100, ptr %9, align 8, !tbaa !34
  %101 = load ptr, ptr %6, align 8, !tbaa !3
  %102 = getelementptr inbounds nuw %struct.evp_pkey_st, ptr %101, i32 0, i32 14
  %103 = load ptr, ptr %102, align 8, !tbaa !33
  store ptr %103, ptr %11, align 8, !tbaa !31
  %104 = load ptr, ptr %9, align 8, !tbaa !34
  %105 = icmp ne ptr %104, null
  br i1 %105, label %106, label %120

106:                                              ; preds = %91
  %107 = load ptr, ptr %9, align 8, !tbaa !34
  %108 = getelementptr inbounds nuw %struct.evp_keymgmt_st, ptr %107, i32 0, i32 25
  %109 = load ptr, ptr %108, align 8, !tbaa !66
  %110 = icmp ne ptr %109, null
  br i1 %110, label %111, label %120

111:                                              ; preds = %106
  %112 = load ptr, ptr %5, align 8, !tbaa !3
  %113 = call ptr @evp_pkey_export_to_provider(ptr noundef %112, ptr noundef null, ptr noundef %9, ptr noundef null)
  store ptr %113, ptr %12, align 8, !tbaa !31
  %114 = load ptr, ptr %12, align 8, !tbaa !31
  %115 = icmp ne ptr %114, null
  br i1 %115, label %116, label %119

116:                                              ; preds = %111
  %117 = load ptr, ptr %9, align 8, !tbaa !34
  store ptr %117, ptr %8, align 8, !tbaa !34
  %118 = load ptr, ptr %12, align 8, !tbaa !31
  store ptr %118, ptr %10, align 8, !tbaa !31
  br label %119

119:                                              ; preds = %116, %111
  br label %120

120:                                              ; preds = %119, %106, %91
  %121 = load ptr, ptr %12, align 8, !tbaa !31
  %122 = icmp eq ptr %121, null
  br i1 %122, label %123, label %140

123:                                              ; preds = %120
  %124 = load ptr, ptr %8, align 8, !tbaa !34
  %125 = icmp ne ptr %124, null
  br i1 %125, label %126, label %140

126:                                              ; preds = %123
  %127 = load ptr, ptr %8, align 8, !tbaa !34
  %128 = getelementptr inbounds nuw %struct.evp_keymgmt_st, ptr %127, i32 0, i32 25
  %129 = load ptr, ptr %128, align 8, !tbaa !66
  %130 = icmp ne ptr %129, null
  br i1 %130, label %131, label %140

131:                                              ; preds = %126
  %132 = load ptr, ptr %6, align 8, !tbaa !3
  %133 = call ptr @evp_pkey_export_to_provider(ptr noundef %132, ptr noundef null, ptr noundef %8, ptr noundef null)
  store ptr %133, ptr %12, align 8, !tbaa !31
  %134 = load ptr, ptr %12, align 8, !tbaa !31
  %135 = icmp ne ptr %134, null
  br i1 %135, label %136, label %139

136:                                              ; preds = %131
  %137 = load ptr, ptr %8, align 8, !tbaa !34
  store ptr %137, ptr %9, align 8, !tbaa !34
  %138 = load ptr, ptr %12, align 8, !tbaa !31
  store ptr %138, ptr %11, align 8, !tbaa !31
  br label %139

139:                                              ; preds = %136, %131
  br label %140

140:                                              ; preds = %139, %126, %123, %120
  %141 = load ptr, ptr %8, align 8, !tbaa !34
  %142 = load ptr, ptr %9, align 8, !tbaa !34
  %143 = icmp ne ptr %141, %142
  br i1 %143, label %144, label %145

144:                                              ; preds = %140
  store i32 -2, ptr %4, align 4
  store i32 1, ptr %13, align 4
  br label %155

145:                                              ; preds = %140
  %146 = load ptr, ptr %8, align 8, !tbaa !34
  %147 = icmp eq ptr %146, null
  br i1 %147, label %148, label %149

148:                                              ; preds = %145
  store i32 -2, ptr %4, align 4
  store i32 1, ptr %13, align 4
  br label %155

149:                                              ; preds = %145
  %150 = load ptr, ptr %8, align 8, !tbaa !34
  %151 = load ptr, ptr %10, align 8, !tbaa !31
  %152 = load ptr, ptr %11, align 8, !tbaa !31
  %153 = load i32, ptr %7, align 4, !tbaa !8
  %154 = call i32 @evp_keymgmt_match(ptr noundef %150, ptr noundef %151, ptr noundef %152, i32 noundef %153)
  store i32 %154, ptr %4, align 4
  store i32 1, ptr %13, align 4
  br label %155

155:                                              ; preds = %149, %148, %144, %90, %69, %44, %33
  call void @llvm.lifetime.end.p0(i64 8, ptr %12) #8
  call void @llvm.lifetime.end.p0(i64 8, ptr %11) #8
  call void @llvm.lifetime.end.p0(i64 8, ptr %10) #8
  call void @llvm.lifetime.end.p0(i64 8, ptr %9) #8
  call void @llvm.lifetime.end.p0(i64 8, ptr %8) #8
  %156 = load i32, ptr %4, align 4
  ret i32 %156
}