; Function Attrs: nounwind uwtable
define internal fastcc i32 @evp_pkey_cmp_any(ptr noundef %0, ptr noundef %1, i32 noundef range(i32 4, 8) %2) unnamed_addr #0 {
  %4 = alloca ptr, align 8
  %5 = alloca ptr, align 8
  call void @llvm.lifetime.start.p0(i64 8, ptr nonnull %4) #12
  call void @llvm.lifetime.start.p0(i64 8, ptr nonnull %5) #12
  %6 = getelementptr inbounds nuw i8, ptr %0, i64 96
  %7 = load ptr, ptr %6, align 8, !tbaa !30
  %.not = icmp eq ptr %7, null
  %8 = getelementptr inbounds nuw i8, ptr %1, i64 96
  %9 = load ptr, ptr %8, align 8, !tbaa !30
  %.not60 = icmp eq ptr %9, null
  br i1 %.not, label %10, label %.critedge

10:                                               ; preds = %3
  br i1 %.not60, label %.thread, label %.critedge.thread, !prof !38

.critedge:                                        ; preds = %3
  br i1 %.not60, label %.thread54, label %11

11:                                               ; preds = %.critedge
  %12 = tail call i32 @evp_keymgmt_util_match(ptr noundef nonnull %0, ptr noundef nonnull %1, i32 noundef %2) #12
  br label %.thread

.critedge.thread:                                 ; preds = %10
  %13 = load i32, ptr %0, align 8, !tbaa !26
  %.not42 = icmp eq i32 %13, 0
  br i1 %.not42, label %.thread54, label %14

14:                                               ; preds = %.critedge.thread
  %15 = tail call ptr @OBJ_nid2sn(i32 noundef %13) #12
  %16 = tail call i32 @EVP_KEYMGMT_is_a(ptr noundef nonnull %9, ptr noundef %15) #12
  %.not43 = icmp eq i32 %16, 0
  br i1 %.not43, label %.thread, label %.thread54

.thread54:                                        ; preds = %.critedge, %14, %.critedge.thread
  %17 = load i32, ptr %1, align 8, !tbaa !26
  %.not44 = icmp eq i32 %17, 0
  br i1 %.not44, label %26, label %18

18:                                               ; preds = %.thread54
  %19 = getelementptr inbounds nuw i8, ptr %1, i64 96
  %20 = load ptr, ptr %19, align 8, !tbaa !30
  %21 = icmp eq ptr %20, null
  br i1 %21, label %22, label %26

22:                                               ; preds = %18
  %23 = load ptr, ptr %6, align 8, !tbaa !30
  %24 = tail call ptr @OBJ_nid2sn(i32 noundef %17) #12
  %25 = tail call i32 @EVP_KEYMGMT_is_a(ptr noundef %23, ptr noundef %24) #12
  %.not45 = icmp eq i32 %25, 0
  br i1 %.not45, label %.thread, label %26

26:                                               ; preds = %22, %18, %.thread54
  %27 = load ptr, ptr %6, align 8, !tbaa !30
  store ptr %27, ptr %4, align 8, !tbaa !34
  %28 = getelementptr inbounds nuw i8, ptr %0, i64 104
  %29 = load ptr, ptr %28, align 8, !tbaa !33
  %30 = getelementptr inbounds nuw i8, ptr %1, i64 96
  %31 = load ptr, ptr %30, align 8, !tbaa !30
  store ptr %31, ptr %5, align 8, !tbaa !34
  %32 = getelementptr inbounds nuw i8, ptr %1, i64 104
  %33 = load ptr, ptr %32, align 8, !tbaa !33
  %.not46 = icmp eq ptr %31, null
  br i1 %.not46, label %40, label %34

34:                                               ; preds = %26
  %35 = getelementptr inbounds nuw i8, ptr %31, i64 192
  %36 = load ptr, ptr %35, align 8, !tbaa !59
  %.not47 = icmp eq ptr %36, null
  br i1 %.not47, label %40, label %37

37:                                               ; preds = %34
  %38 = call ptr @evp_pkey_export_to_provider(ptr noundef nonnull %0, ptr noundef null, ptr noundef nonnull %5, ptr noundef null)
  %.not48 = icmp eq ptr %38, null
  br i1 %.not48, label %40, label %.thread55

.thread55:                                        ; preds = %37
  %39 = load ptr, ptr %5, align 8, !tbaa !34
  store ptr %39, ptr %4, align 8, !tbaa !34
  br label %47

40:                                               ; preds = %37, %34, %26
  %.not61 = icmp eq ptr %27, null
  br i1 %.not61, label %.thread, label %41

41:                                               ; preds = %40
  %42 = getelementptr inbounds nuw i8, ptr %27, i64 192
  %43 = load ptr, ptr %42, align 8, !tbaa !59
  %.not49 = icmp eq ptr %43, null
  br i1 %.not49, label %47, label %44

44:                                               ; preds = %41
  %45 = call ptr @evp_pkey_export_to_provider(ptr noundef nonnull %1, ptr noundef null, ptr noundef nonnull %4, ptr noundef null)
  %.not50 = icmp eq ptr %45, null
  %.pre = load ptr, ptr %4, align 8, !tbaa !34
  br i1 %.not50, label %47, label %46

46:                                               ; preds = %44
  store ptr %.pre, ptr %5, align 8, !tbaa !34
  br label %47

47:                                               ; preds = %.thread55, %44, %46, %41
  %48 = phi ptr [ %.pre, %46 ], [ %.pre, %44 ], [ %27, %41 ], [ %39, %.thread55 ]
  %.03159 = phi ptr [ %29, %46 ], [ %29, %44 ], [ %29, %41 ], [ %38, %.thread55 ]
  %.030 = phi ptr [ %45, %46 ], [ %33, %44 ], [ %33, %41 ], [ %33, %.thread55 ]
  %49 = load ptr, ptr %5, align 8, !tbaa !34
  %.not51 = icmp ne ptr %48, %49
  %50 = icmp eq ptr %48, null
  %or.cond52 = or i1 %50, %.not51
  br i1 %or.cond52, label %.thread, label %51

51:                                               ; preds = %47
  %52 = call i32 @evp_keymgmt_match(ptr noundef nonnull %48, ptr noundef %.03159, ptr noundef %.030, i32 noundef %2) #12
  br label %.thread

.thread:                                          ; preds = %40, %47, %22, %14, %10, %51, %11
  %.032 = phi i32 [ %12, %11 ], [ %52, %51 ], [ -2, %10 ], [ -1, %14 ], [ -1, %22 ], [ -2, %47 ], [ -2, %40 ]
  call void @llvm.lifetime.end.p0(i64 8, ptr nonnull %5) #12
  call void @llvm.lifetime.end.p0(i64 8, ptr nonnull %4) #12
  ret i32 %.032
}